; Function Attrs: mustprogress uwtable
define hidden void @_ZN4cvc58internal6theory5arith11TheoryArith24updateModelCacheInternalERKSt3setINS0_12NodeTemplateILb1EEESt4lessIS6_ESaIS6_EE(ptr noundef nonnull align 8 dereferenceable(1856) %this, ptr noundef nonnull align 8 dereferenceable(48) %termSet) local_unnamed_addr #3 align 2 {
entry:
  %d_arithModelCacheSet = getelementptr inbounds i8, ptr %this, i64 1824
  %0 = load i8, ptr %d_arithModelCacheSet, align 8
  %1 = and i8 %0, 1
  %tobool.not = icmp eq i8 %1, 0
  br i1 %tobool.not, label %if.then, label %if.end

if.then:                                          ; preds = %entry
  store i8 1, ptr %d_arithModelCacheSet, align 8
  %d_internal = getelementptr inbounds i8, ptr %this, i64 1232
  %2 = load ptr, ptr %d_internal, align 8
  %d_arithModelCache = getelementptr inbounds i8, ptr %this, i64 1672
  %d_arithModelCacheIllTyped = getelementptr inbounds i8, ptr %this, i64 1720
  tail call void @_ZN4cvc58internal6theory5arith6linear18TheoryArithPrivate18collectModelValuesERKSt3setINS0_12NodeTemplateILb1EEESt4lessIS7_ESaIS7_EERSt3mapIS7_S7_S9_SaISt4pairIKS7_S7_EEESK_(ptr noundef nonnull align 8 dereferenceable(9400) %2, ptr noundef nonnull align 8 dereferenceable(48) %termSet, ptr noundef nonnull align 8 dereferenceable(48) %d_arithModelCache, ptr noundef nonnull align 8 dereferenceable(48) %d_arithModelCacheIllTyped)
  br label %if.end

if.end:                                           ; preds = %if.then, %entry
  ret void
}